; Function Attrs: nounwind uwtable
define void @CVodeAdjFree(ptr noundef %0) local_unnamed_addr #0 {
  %2 = alloca ptr, align 8
  %3 = icmp eq ptr %0, null
  br i1 %3, label %49, label %4

4:                                                ; preds = %1
  %5 = getelementptr inbounds nuw i8, ptr %0, i64 2680
  %6 = load i32, ptr %5, align 8, !tbaa !48
  %.not = icmp eq i32 %6, 0
  br i1 %.not, label %49, label %7

7:                                                ; preds = %4
  %8 = getelementptr inbounds nuw i8, ptr %0, i64 2672
  %9 = load ptr, ptr %8, align 8, !tbaa !3
  %10 = getelementptr inbounds nuw i8, ptr %9, i64 80
  %11 = load ptr, ptr %10, align 8, !tbaa !20
  %.not2226 = icmp eq ptr %11, null
  br i1 %.not2226, label %._crit_edge, label %.lr.ph

.lr.ph:                                           ; preds = %7, %.lr.ph
  tail call fastcc void @CVAckpntDelete(ptr noundef nonnull %10)
  %12 = load ptr, ptr %10, align 8, !tbaa !20
  %.not22 = icmp eq ptr %12, null
  br i1 %.not22, label %._crit_edge, label %.lr.ph

._crit_edge:                                      ; preds = %.lr.ph, %7
  %13 = getelementptr inbounds nuw i8, ptr %9, i64 176
  %14 = load i32, ptr %13, align 8, !tbaa !37
  %.not23 = icmp eq i32 %14, 0
  br i1 %.not23, label %18, label %15

15:                                               ; preds = %._crit_edge
  %16 = getelementptr inbounds nuw i8, ptr %9, i64 152
  %17 = load ptr, ptr %16, align 8, !tbaa !34
  tail call void %17(ptr noundef nonnull %0) #9
  br label %18

18:                                               ; preds = %15, %._crit_edge
  %19 = getelementptr inbounds nuw i8, ptr %9, i64 104
  %20 = load i64, ptr %19, align 8, !tbaa !28
  %.not2427 = icmp slt i64 %20, 0
  %.phi.trans.insert = getelementptr inbounds nuw i8, ptr %9, i64 120
  %.pre36 = load ptr, ptr %.phi.trans.insert, align 8, !tbaa !30
  br i1 %.not2427, label %._crit_edge31, label %.lr.ph30

.lr.ph30:                                         ; preds = %18, %.lr.ph30
  %21 = phi ptr [ %24, %.lr.ph30 ], [ %.pre36, %18 ]
  %.028 = phi i64 [ %26, %.lr.ph30 ], [ 0, %18 ]
  %22 = getelementptr inbounds nuw ptr, ptr %21, i64 %.028
  %23 = load ptr, ptr %22, align 8, !tbaa !31
  tail call void @free(ptr noundef %23) #9
  %24 = load ptr, ptr %.phi.trans.insert, align 8, !tbaa !30
  %25 = getelementptr inbounds nuw ptr, ptr %24, i64 %.028
  store ptr null, ptr %25, align 8, !tbaa !31
  %26 = add nuw nsw i64 %.028, 1
  %27 = load i64, ptr %19, align 8, !tbaa !28
  %.not24.not = icmp slt i64 %.028, %27
  br i1 %.not24.not, label %.lr.ph30, label %._crit_edge31

._crit_edge31:                                    ; preds = %.lr.ph30, %18
  %28 = phi ptr [ %.pre36, %18 ], [ %24, %.lr.ph30 ]
  %29 = getelementptr inbounds nuw i8, ptr %9, i64 120
  tail call void @free(ptr noundef %28) #9
  store ptr null, ptr %29, align 8, !tbaa !30
  %30 = getelementptr inbounds nuw i8, ptr %9, i64 48
  %31 = load ptr, ptr %30, align 8, !tbaa !40
  %.not2532 = icmp eq ptr %31, null
  br i1 %.not2532, label %._crit_edge35, label %.lr.ph34

.lr.ph34:                                         ; preds = %._crit_edge31, %CVAbckpbDelete.exit
  %32 = phi ptr [ %48, %CVAbckpbDelete.exit ], [ %31, %._crit_edge31 ]
  call void @llvm.lifetime.start.p0(i64 8, ptr nonnull %2) #9
  %33 = getelementptr inbounds nuw i8, ptr %32, i64 120
  %34 = load ptr, ptr %33, align 8, !tbaa !90
  store ptr %34, ptr %30, align 8, !tbaa !93
  %35 = getelementptr inbounds nuw i8, ptr %32, i64 16
  %36 = load ptr, ptr %35, align 8, !tbaa !94
  store ptr %36, ptr %2, align 8, !tbaa !95
  call void @CVodeFree(ptr noundef nonnull %2) #9
  %37 = getelementptr inbounds nuw i8, ptr %32, i64 80
  %38 = load ptr, ptr %37, align 8, !tbaa !96
  %.not15.i = icmp eq ptr %38, null
  br i1 %.not15.i, label %41, label %39

39:                                               ; preds = %.lr.ph34
  %40 = call i32 %38(ptr noundef nonnull %32) #9
  br label %41

41:                                               ; preds = %39, %.lr.ph34
  %42 = getelementptr inbounds nuw i8, ptr %32, i64 96
  %43 = load ptr, ptr %42, align 8, !tbaa !97
  %.not16.i = icmp eq ptr %43, null
  br i1 %.not16.i, label %CVAbckpbDelete.exit, label %44

44:                                               ; preds = %41
  %45 = call i32 %43(ptr noundef nonnull %32) #9
  br label %CVAbckpbDelete.exit

CVAbckpbDelete.exit:                              ; preds = %41, %44
  %46 = getelementptr inbounds nuw i8, ptr %32, i64 112
  %47 = load ptr, ptr %46, align 8, !tbaa !98
  call void @N_VDestroy(ptr noundef %47) #9
  call void @free(ptr noundef nonnull %32) #9
  call void @llvm.lifetime.end.p0(i64 8, ptr nonnull %2) #9
  %48 = load ptr, ptr %30, align 8, !tbaa !40
  %.not25 = icmp eq ptr %48, null
  br i1 %.not25, label %._crit_edge35, label %.lr.ph34

._crit_edge35:                                    ; preds = %CVAbckpbDelete.exit, %._crit_edge31
  call void @free(ptr noundef nonnull %9) #9
  store ptr null, ptr %8, align 8, !tbaa !3
  br label %49

49:                                               ; preds = %4, %._crit_edge35, %1
  ret void
}